target datalayout = "e-m:e-p270:32:32-p271:32:32-p272:64:64-i64:64-i128:128-f80:128-n8:16:32:64-S128"
target triple = "x86_64-pc-linux-gnu"

%"class.absl::Flag" = type { ptr, i8, %"class.std::shared_ptr" }
%"class.std::shared_ptr" = type { %"class.std::__shared_ptr" }
%"class.std::__shared_ptr" = type { ptr, %"class.std::__shared_count" }
%"class.std::__shared_count" = type { ptr }
%"class.std::__cxx11::basic_string" = type { %"struct.std::__cxx11::basic_string<char>::_Alloc_hider", i64, %union.anon }
%"struct.std::__cxx11::basic_string<char>::_Alloc_hider" = type { ptr }
%union.anon = type { i64, [8 x i8] }
%"class.std::basic_string_view" = type { i64, ptr }

; Function Attrs: mustprogress nounwind uwtable
define available_externally noundef ptr @_ZNKSt7__cxx1112basic_stringIcSt11char_traitsIcESaIcEE7_M_dataEv(ptr noundef nonnull align 8 dereferenceable(32) %0) #8 align 2 {
  %2 = alloca ptr, align 8
  store ptr %0, ptr %2, align 8, !tbaa !14
  %3 = load ptr, ptr %2, align 8
  %4 = getelementptr inbounds nuw %"class.std::__cxx11::basic_string", ptr %3, i32 0, i32 0
  %5 = getelementptr inbounds nuw %"struct.std::__cxx11::basic_string<char>::_Alloc_hider", ptr %4, i32 0, i32 0
  %6 = load ptr, ptr %5, align 8, !tbaa !165
  ret ptr %6
}

; Function Attrs: mustprogress nounwind uwtable
define linkonce_odr void @_ZNSt17basic_string_viewIcSt11char_traitsIcEEC2EPKcm(ptr noundef nonnull align 8 dereferenceable(16) %0, ptr noundef %1, i64 noundef %2) unnamed_addr #8 comdat align 2 {
  %4 = alloca ptr, align 8
  %5 = alloca ptr, align 8
  %6 = alloca i64, align 8
  store ptr %0, ptr %4, align 8, !tbaa !152
  store ptr %1, ptr %5, align 8, !tbaa !12
  store i64 %2, ptr %6, align 8, !tbaa !36
  %7 = load ptr, ptr %4, align 8
  %8 = getelementptr inbounds nuw %"class.std::basic_string_view", ptr %7, i32 0, i32 0
  %9 = load i64, ptr %6, align 8, !tbaa !36
  store i64 %9, ptr %8, align 8, !tbaa !159
  %10 = getelementptr inbounds nuw %"class.std::basic_string_view", ptr %7, i32 0, i32 1
  %11 = load ptr, ptr %5, align 8, !tbaa !12
  store ptr %11, ptr %10, align 8, !tbaa !157
  ret void
}

; Function Attrs: mustprogress nounwind uwtable
define available_externally noundef ptr @_ZNKSt7__cxx1112basic_stringIcSt11char_traitsIcESaIcEE4dataEv(ptr noundef nonnull align 8 dereferenceable(32) %0) #8 align 2 {
  %2 = alloca ptr, align 8
  store ptr %0, ptr %2, align 8, !tbaa !14
  %3 = load ptr, ptr %2, align 8
  %4 = call noundef ptr @_ZNKSt7__cxx1112basic_stringIcSt11char_traitsIcESaIcEE7_M_dataEv(ptr noundef nonnull align 8 dereferenceable(32) %3)
  ret ptr %4
}

; Function Attrs: mustprogress nounwind uwtable
define available_externally noundef i64 @_ZNKSt7__cxx1112basic_stringIcSt11char_traitsIcESaIcEE4sizeEv(ptr noundef nonnull align 8 dereferenceable(32) %0) #8 align 2 {
  %2 = alloca ptr, align 8
  store ptr %0, ptr %2, align 8, !tbaa !14
  %3 = load ptr, ptr %2, align 8
  %4 = getelementptr inbounds nuw %"class.std::__cxx11::basic_string", ptr %3, i32 0, i32 1
  %5 = load i64, ptr %4, align 8, !tbaa !168
  ret i64 %5
}

; Function Attrs: mustprogress nounwind uwtable
define available_externally { i64, ptr } @_ZNKSt7__cxx1112basic_stringIcSt11char_traitsIcESaIcEEcvSt17basic_string_viewIcS2_EEv(ptr noundef nonnull align 8 dereferenceable(32) %0) #8 align 2 {
  %2 = alloca %"class.std::basic_string_view", align 8
  %3 = alloca ptr, align 8
  store ptr %0, ptr %3, align 8, !tbaa !14
  %4 = load ptr, ptr %3, align 8
  %5 = call noundef ptr @_ZNKSt7__cxx1112basic_stringIcSt11char_traitsIcESaIcEE4dataEv(ptr noundef nonnull align 8 dereferenceable(32) %4) #3
  %6 = call noundef i64 @_ZNKSt7__cxx1112basic_stringIcSt11char_traitsIcESaIcEE4sizeEv(ptr noundef nonnull align 8 dereferenceable(32) %4) #3
  call void @_ZNSt17basic_string_viewIcSt11char_traitsIcEEC2EPKcm(ptr noundef nonnull align 8 dereferenceable(16) %2, ptr noundef %5, i64 noundef %6) #3
  %7 = load { i64, ptr }, ptr %2, align 8
  ret { i64, ptr } %7
}

; Function Attrs: mustprogress nounwind uwtable
define available_externally noundef zeroext i1 @_ZNKSt7__cxx1112basic_stringIcSt11char_traitsIcESaIcEE5emptyEv(ptr noundef nonnull align 8 dereferenceable(32) %0) #8 align 2 {
  %2 = alloca ptr, align 8
  store ptr %0, ptr %2, align 8, !tbaa !14
  %3 = load ptr, ptr %2, align 8
  %4 = call noundef i64 @_ZNKSt7__cxx1112basic_stringIcSt11char_traitsIcESaIcEE4sizeEv(ptr noundef nonnull align 8 dereferenceable(32) %3) #3
  %5 = icmp eq i64 %4, 0
  ret i1 %5
}

; Function Attrs: mustprogress uwtable
define void @_ZN4absl4FlagIbE16set_value_as_strERKNSt7__cxx1112basic_stringIcSt11char_traitsIcESaIcEEE(ptr noundef nonnull align 8 dereferenceable(32) %0, ptr noundef nonnull align 8 dereferenceable(32) %1) #5 align 2 {
  %3 = alloca ptr, align 8
  %4 = alloca ptr, align 8
  %5 = alloca %"class.std::basic_string_view", align 8
  store ptr %0, ptr %3, align 8, !tbaa !84
  store ptr %1, ptr %4, align 8, !tbaa !14
  %6 = load ptr, ptr %3, align 8
  %7 = load ptr, ptr %4, align 8, !tbaa !14
  %8 = call noundef zeroext i1 @_ZNKSt7__cxx1112basic_stringIcSt11char_traitsIcESaIcEE5emptyEv(ptr noundef nonnull align 8 dereferenceable(32) %7) #3
  br i1 %8, label %9, label %11

9:                                                ; preds = %2
  %10 = getelementptr inbounds nuw %"class.absl::Flag", ptr %6, i32 0, i32 1
  store i8 1, ptr %10, align 8, !tbaa !90
  br label %24

11:                                               ; preds = %2
  %12 = load ptr, ptr %4, align 8, !tbaa !14
  %13 = call { i64, ptr } @_ZNKSt7__cxx1112basic_stringIcSt11char_traitsIcESaIcEEcvSt17basic_string_viewIcS2_EEv(ptr noundef nonnull align 8 dereferenceable(32) %12) #3
  %14 = getelementptr inbounds nuw { i64, ptr }, ptr %5, i32 0, i32 0
  %15 = extractvalue { i64, ptr } %13, 0
  store i64 %15, ptr %14, align 8
  %16 = getelementptr inbounds nuw { i64, ptr }, ptr %5, i32 0, i32 1
  %17 = extractvalue { i64, ptr } %13, 1
  store ptr %17, ptr %16, align 8
  %18 = getelementptr inbounds nuw %"class.absl::Flag", ptr %6, i32 0, i32 1
  %19 = getelementptr inbounds nuw { i64, ptr }, ptr %5, i32 0, i32 0
  %20 = load i64, ptr %19, align 8
  %21 = getelementptr inbounds nuw { i64, ptr }, ptr %5, i32 0, i32 1
  %22 = load ptr, ptr %21, align 8
  %23 = call noundef zeroext i1 @_ZN13sentencepiece11string_util12lexical_castIbEEbSt17basic_string_viewIcSt11char_traitsIcEEPT_(i64 %20, ptr %22, ptr noundef %18)
  br label %24

24:                                               ; preds = %11, %9
  ret void
}