; Function Attrs: mustprogress uwtable
define void @_ZN4absl4FlagIbE16set_value_as_strERKNSt7__cxx1112basic_stringIcSt11char_traitsIcESaIcEEE(ptr noundef nonnull align 8 dereferenceable(32) %0, ptr noundef nonnull readonly align 8 captures(none) dereferenceable(32) %1) local_unnamed_addr #4 align 2 {
  %3 = getelementptr inbounds nuw i8, ptr %1, i64 8
  %4 = load i64, ptr %3, align 8, !tbaa !14
  %5 = icmp eq i64 %4, 0
  br i1 %5, label %6, label %8

6:                                                ; preds = %2
  %7 = getelementptr inbounds nuw i8, ptr %0, i64 8
  store i8 1, ptr %7, align 8, !tbaa !146
  br label %12

8:                                                ; preds = %2
  %9 = load ptr, ptr %1, align 8, !tbaa !11
  %10 = getelementptr inbounds nuw i8, ptr %0, i64 8
  %11 = tail call noundef zeroext i1 @_ZN13sentencepiece11string_util12lexical_castIbEEbSt17basic_string_viewIcSt11char_traitsIcEEPT_(i64 %4, ptr %9, ptr noundef nonnull %10)
  br label %12

12:                                               ; preds = %8, %6
  ret void
}